

HI-TECH Software PIC LITE Macro Assembler V9.82 build 9453 
                                                                                               Wed Sep 28 03:09:06 2011

HI-TECH Software Omniscient Code Generator (Lite mode) build 9453
     1  0000                     opt subtitle "HI-TECH Software Omniscient Code Generator (Lite mode) build 9453"
     2                           
     3                           opt pagewidth 120
     4                           
     5                           	opt lm
     6                           
     7                           	processor	16F628A
     8                           clrc	macro
     9                           	bcf	3,0
    10  0000                     	endm
    11                           clrz	macro
    12                           	bcf	3,2
    13  0000                     	endm
    14                           setc	macro
    15                           	bsf	3,0
    16  0000                     	endm
    17                           setz	macro
    18                           	bsf	3,2
    19  0000                     	endm
    20                           skipc	macro
    21                           	btfss	3,0
    22  0000                     	endm
    23                           skipz	macro
    24                           	btfss	3,2
    25  0000                     	endm
    26                           skipnc	macro
    27                           	btfsc	3,0
    28  0000                     	endm
    29                           skipnz	macro
    30                           	btfsc	3,2
    31  0000                     	endm
    32  0000                     indf	equ	0
    33  0000                     indf0	equ	0
    34  0002                     pc	equ	2
    35  0002                     pcl	equ	2
    36  0003                     status	equ	3
    37  0004                     fsr	equ	4
    38  0004                     fsr0	equ	4
    39  0001                     c	equ	1
    40  0000                     z	equ	0
    41  000A                     pclath	equ	10
    42                           # 3 "C:\Users\root\Documents\TrainUtilizingSystem\DeviceSoftware\TrainSensorModule\main.
                                 c"
    43                           	psect config,class=CONFIG,delta=2 ;#
    44                           # 3 "C:\Users\root\Documents\TrainUtilizingSystem\DeviceSoftware\TrainSensorModule\main.
                                 c"
    45  2007  FF2A               	dw 0xFFEE & 0xFFFB & 0xFFBF & 0xFFFF & 0xFFFF & 0xFF7F ;#
    46                           	FNCALL	_main,_Init
    47                           	FNCALL	_main,_ReadInput
    48                           	FNCALL	_Init,_PortClear
    49                           	FNROOT	_main
    50                           	global	_BITS_Array
    51                           	global	_PORT_Array
    52                           	global	_TRIS_Array
    53                           psect	idataBANK0,class=CODE,space=0,delta=2
    54                           global __pidataBANK0
    55  0716                     __pidataBANK0:
    56                           	file	"C:\Users\root\Documents\TrainUtilizingSystem\DeviceSoftware\TrainSensorModule\mai
                                 n.c"
    57                           	line	36
    58                           
    59                           ;initializer for _BITS_Array
    60  0716  3401               	retlw	01h
    61  0717  3400               	retlw	0
    62  0718  3402               	retlw	02h
    63  0719  3403               	retlw	03h
    64  071A  3404               	retlw	04h
    65  071B  3405               	retlw	05h
    66  071C  3406               	retlw	06h
    67  071D  3407               	retlw	07h
    68                           	line	41
    69                           
    70                           ;initializer for _PORT_Array
    71  071E  3405               	retlw	5&0ffh
    72  071F  3405               	retlw	5&0ffh
    73  0720  3405               	retlw	5&0ffh
    74  0721  3405               	retlw	5&0ffh
    75  0722  3405               	retlw	5&0ffh
    76  0723  3406               	retlw	6&0ffh
    77  0724  3406               	retlw	6&0ffh
    78  0725  3406               	retlw	6&0ffh
    79                           	line	24
    80                           
    81                           ;initializer for _TRIS_Array
    82  0726  3485               	retlw	133&0ffh
    83  0727  3485               	retlw	133&0ffh
    84  0728  3485               	retlw	133&0ffh
    85  0729  3485               	retlw	133&0ffh
    86  072A  3485               	retlw	133&0ffh
    87  072B  3486               	retlw	134&0ffh
    88  072C  3486               	retlw	134&0ffh
    89  072D  3486               	retlw	134&0ffh
    90                           	global	_CMCON
    91  001F                     _CMCON	set	31
    92                           	global	_CARRY
    93  0018                     _CARRY	set	24
    94                           	global	_GIE
    95  005F                     _GIE	set	95
    96                           	global	_RB3
    97  0033                     _RB3	set	51
    98                           	global	_RB4
    99  0034                     _RB4	set	52
   100                           	global	_EEADR
   101  009B                     _EEADR	set	155
   102                           	global	_EECON1
   103  009C                     _EECON1	set	156
   104                           	global	_EECON2
   105  009D                     _EECON2	set	157
   106                           	global	_EEDATA
   107  009A                     _EEDATA	set	154
   108                           	global	_VRCON
   109  009F                     _VRCON	set	159
   110                           	global	_RD
   111  04E0                     _RD	set	1248
   112                           	global	_TRISB0
   113  0430                     _TRISB0	set	1072
   114                           	global	_TRISB1
   115  0431                     _TRISB1	set	1073
   116                           	global	_TRISB2
   117  0432                     _TRISB2	set	1074
   118                           	global	_TRISB3
   119  0433                     _TRISB3	set	1075
   120                           	global	_TRISB4
   121  0434                     _TRISB4	set	1076
   122                           	global	_WR
   123  04E1                     _WR	set	1249
   124                           	global	_WREN
   125  04E2                     _WREN	set	1250
   126                           	global	_nRBPU
   127  040F                     _nRBPU	set	1039
   128                           	global	_PORTA
   129  0005                     _PORTA	set	5
   130                           	global	_PORTB
   131  0006                     _PORTB	set	6
   132                           	global	_TRISA
   133  0085                     _TRISA	set	133
   134                           	global	_TRISB
   135  0086                     _TRISB	set	134
   136                           	file	"C:\Users\root\AppData\Local\Temp\sb5c."
   137                           	line	#
   138                           psect cinit,class=CODE,delta=2
   139                           global start_initialization
   140  06E5                     start_initialization:
   141                           
   142                           psect	dataBANK0,class=BANK0,space=1
   143                           global __pdataBANK0
   144  0020                     __pdataBANK0:
   145                           	file	"C:\Users\root\Documents\TrainUtilizingSystem\DeviceSoftware\TrainSensorModule\mai
                                 n.c"
   146                           	line	36
   147  0020                     _BITS_Array:
   148  0020                            ds      8
   149                           
   150                           psect	dataBANK0
   151                           	file	"C:\Users\root\Documents\TrainUtilizingSystem\DeviceSoftware\TrainSensorModule\mai
                                 n.c"
   152                           	line	41
   153  0028                     _PORT_Array:
   154  0028                            ds      8
   155                           
   156                           psect	dataBANK0
   157                           	file	"C:\Users\root\Documents\TrainUtilizingSystem\DeviceSoftware\TrainSensorModule\mai
                                 n.c"
   158                           	line	24
   159  0030                     _TRIS_Array:
   160  0030                            ds      8
   161                           
   162                           global btemp
   163                           psect inittext,class=CODE,delta=2
   164                           global init_fetch,btemp
   165                           ;	Called with low address in FSR and high address in W
   166  06F1                     init_fetch:
   167  06F1  087E               	movf btemp,w
   168  06F2  008A               	movwf pclath
   169  06F3  087F               	movf btemp+1,w
   170  06F4  0082               	movwf pc
   171                           global init_ram
   172                           ;Called with:
   173                           ;	high address of idata address in btemp 
   174                           ;	low address of idata address in btemp+1 
   175                           ;	low address of data in FSR
   176                           ;	high address + 1 of data in btemp-1
   177  06F5                     init_ram:
   178  06F5  26F1               	fcall init_fetch
   179  06F6  0080               	movwf indf,f
   180  06F7  0A84               	incf fsr,f
   181  06F8  0804               	movf fsr,w
   182  06F9  067D               	xorwf btemp-1,w
   183  06FA  1903               	btfsc status,2
   184  06FB  3400               	retlw 0
   185  06FC  0AFF               	incf btemp+1,f
   186  06FD  1903               	btfsc status,2
   187  06FE  0AFE               	incf btemp,f
   188  06FF  2EF5               	goto init_ram
   189                           ; Initialize objects allocated to BANK0
   190                           psect cinit,class=CODE,delta=2
   191                           global init_ram, __pidataBANK0
   192  06E5  1383               	bcf	status, 7	;select IRP bank0
   193  06E6  3038               	movlw low(__pdataBANK0+24)
   194  06E7  00FD               	movwf btemp-1,f
   195  06E8  3007               	movlw high(__pidataBANK0)
   196  06E9  00FE               	movwf btemp,f
   197  06EA  3016               	movlw low(__pidataBANK0)
   198  06EB  00FF               	movwf btemp+1,f
   199  06EC  3020               	movlw low(__pdataBANK0)
   200  06ED  0084               	movwf fsr,f
   201  06EE  26F5               	fcall init_ram
   202                           psect cinit,class=CODE,delta=2
   203                           global end_of_initialization
   204                           
   205                           ;End of C runtime variable initialization code
   206                           
   207  06EF                     end_of_initialization:
   208  06EF  0183               clrf status
   209  06F0  2F67               ljmp _main	;jump to C main() function
   210                           psect	cstackCOMMON,class=COMMON,space=1
   211                           global __pcstackCOMMON
   212  0070                     __pcstackCOMMON:
   213                           	global	?_PortClear
   214  0070                     ?_PortClear:	; 0 bytes @ 0x0
   215                           	global	??_PortClear
   216  0070                     ??_PortClear:	; 0 bytes @ 0x0
   217                           	global	?_Init
   218  0070                     ?_Init:	; 0 bytes @ 0x0
   219                           	global	??_ReadInput
   220  0070                     ??_ReadInput:	; 0 bytes @ 0x0
   221                           	global	?_main
   222  0070                     ?_main:	; 0 bytes @ 0x0
   223                           	global	?_ReadInput
   224  0070                     ?_ReadInput:	; 1 bytes @ 0x0
   225  0070                     	ds	3
   226                           	global	PortClear@i
   227  0073                     PortClear@i:	; 1 bytes @ 0x3
   228  0073                     	ds	1
   229                           	global	??_Init
   230  0074                     ??_Init:	; 0 bytes @ 0x4
   231                           	global	??_main
   232  0074                     ??_main:	; 0 bytes @ 0x4
   233  0074                     	ds	3
   234                           	global	main@tmp
   235  0077                     main@tmp:	; 1 bytes @ 0x7
   236  0077                     	ds	1
   237                           	global	main@cache
   238  0078                     main@cache:	; 1 bytes @ 0x8
   239  0078                     	ds	1
   240 ;;Data sizes: Strings 0, constant 0, data 24, bss 0, persistent 0 stack 0
   241 ;;Auto spaces:   Size  Autos    Used
   242 ;; COMMON          14      9       9
   243 ;; BANK0           80      0      24
   244 ;; BANK1           80      0       0
   245 ;; BANK2           48      0       0
   246                           
   247 ;;
   248 ;; Pointer list with targets:
   249                           
   250 ;; PORT_Array	PTR volatile unsigned char [8] size(1) Largest target is 1
   251 ;;		 -> PORTB(BITSFR0[1]), PORTA(BITSFR0[1]), 
   252 ;;
   253 ;; TRIS_Array	PTR volatile unsigned char [8] size(1) Largest target is 1
   254 ;;		 -> TRISB(BITSFR1[1]), TRISA(BITSFR1[1]), 
   255 ;;
   256                           
   257                           
   258 ;;
   259 ;; Critical Paths under _main in COMMON
   260 ;;
   261 ;;   _Init->_PortClear
   262 ;;
   263 ;; Critical Paths under _main in BANK0
   264 ;;
   265 ;;   None.
   266 ;;
   267 ;; Critical Paths under _main in BANK1
   268 ;;
   269 ;;   None.
   270 ;;
   271 ;; Critical Paths under _main in BANK2
   272 ;;
   273 ;;   None.
   274                           
   275 ;;
   276 ;;Main: autosize = 0, tempsize = 3, incstack = 0, save=0
   277 ;;
   278                           
   279 ;;
   280 ;;Call Graph Tables:
   281 ;;
   282 ;; ---------------------------------------------------------------------------------
   283 ;; (Depth) Function   	        Calls       Base Space   Used Autos Params    Refs
   284 ;; ---------------------------------------------------------------------------------
   285 ;; (0) _main                                                 5     5      0     489
   286 ;;                                              4 COMMON     5     5      0
   287 ;;                               _Init
   288 ;;                          _ReadInput
   289 ;; ---------------------------------------------------------------------------------
   290 ;; (1) _Init                                                 1     1      0     134
   291 ;;                          _PortClear
   292 ;; ---------------------------------------------------------------------------------
   293 ;; (1) _ReadInput                                            0     0      0       0
   294 ;; ---------------------------------------------------------------------------------
   295 ;; (2) _PortClear                                            4     4      0     134
   296 ;;                                              0 COMMON     4     4      0
   297 ;; ---------------------------------------------------------------------------------
   298 ;; Estimated maximum stack depth 2
   299 ;; ---------------------------------------------------------------------------------
   300                           
   301 ;; Call Graph Graphs:
   302                           
   303 ;; _main (ROOT)
   304 ;;   _Init
   305 ;;     _PortClear
   306 ;;   _ReadInput
   307 ;;
   308                           
   309 ;; Address spaces:
   310                           
   311 ;;Name               Size   Autos  Total    Cost      Usage
   312 ;;SFR3                 0      0       0       4        0.0%
   313 ;;BITSFR3              0      0       0       4        0.0%
   314 ;;BANK2               30      0       0       9        0.0%
   315 ;;BITBANK2            30      0       0       8        0.0%
   316 ;;SFR2                 0      0       0       5        0.0%
   317 ;;BITSFR2              0      0       0       5        0.0%
   318 ;;SFR1                 0      0       0       2        0.0%
   319 ;;BITSFR1              0      0       0       2        0.0%
   320 ;;BANK1               50      0       0       7        0.0%
   321 ;;BITBANK1            50      0       0       6        0.0%
   322 ;;CODE                 0      0       0       0        0.0%
   323 ;;DATA                 0      0      23      10        0.0%
   324 ;;ABS                  0      0      21       4        0.0%
   325 ;;NULL                 0      0       0       0        0.0%
   326 ;;STACK                0      0       2       2        0.0%
   327 ;;BANK0               50      0      18       3       30.0%
   328 ;;BITBANK0            50      0       0       5        0.0%
   329 ;;SFR0                 0      0       0       1        0.0%
   330 ;;BITSFR0              0      0       0       1        0.0%
   331 ;;COMMON               E      9       9       1       64.3%
   332 ;;BITCOMMON            E      0       0       0        0.0%
   333 ;;EEDATA              80      0       0       0        0.0%
   334                           
   335                           	global	_main
   336                           psect	maintext,global,class=CODE,delta=2
   337                           global __pmaintext
   338  0767                     __pmaintext:
   339                           
   340 ;; *************** function _main *****************
   341 ;; Defined at:
   342 ;;		line 107 in file "C:\Users\root\Documents\TrainUtilizingSystem\DeviceSoftware\TrainSensorModule\main.c"
   343 ;; Parameters:    Size  Location     Type
   344 ;;		None
   345 ;; Auto vars:     Size  Location     Type
   346 ;;  tmp             1    7[COMMON] unsigned char 
   347 ;;  cache           1    8[COMMON] unsigned char 
   348 ;; Return value:  Size  Location     Type
   349 ;;		None               void
   350 ;; Registers used:
   351 ;;		wreg, fsr0l, fsr0h, status,2, status,0, pclath, cstack
   352 ;; Tracked objects:
   353 ;;		On entry : 17F/0
   354 ;;		On exit  : 0/0
   355 ;;		Unchanged: 0/0
   356 ;; Data sizes:     COMMON   BANK0   BANK1   BANK2
   357 ;;      Params:         0       0       0       0
   358 ;;      Locals:         2       0       0       0
   359 ;;      Temps:          3       0       0       0
   360 ;;      Totals:         5       0       0       0
   361 ;;Total ram usage:        5 bytes
   362 ;; Hardware stack levels required when called:    2
   363 ;; This function calls:
   364 ;;		_Init
   365 ;;		_ReadInput
   366 ;; This function is called by:
   367 ;;		Startup code after reset
   368 ;; This function uses a non-reentrant model
   369 ;;
   370                           psect	maintext
   371                           	file	"C:\Users\root\Documents\TrainUtilizingSystem\DeviceSoftware\TrainSensorModule\mai
                                 n.c"
   372                           	line	107
   373                           	global	__size_of_main
   374  0099                     	__size_of_main	equ	__end_of_main-_main
   375                           	
   376  0767                     _main:	
   377                           	opt	stack 6
   378                           ; Regs used in _main: [wreg-fsr0h+status,2+status,0+pclath+cstack]
   379                           	line	108
   380                           	
   381  0767                     l2138:	
   382                           ;main.c: 108: unsigned char cache = 0x01;
   383  0767  01F8               	clrf	(main@cache)
   384  0768  1403               	bsf	status,0
   385  0769  0DF8               	rlf	(main@cache),f
   386                           	line	110
   387                           	
   388  076A                     l2140:	
   389                           ;main.c: 110: Init();
   390  076A  2700               	fcall	_Init
   391                           	line	111
   392                           	
   393  076B                     l2142:	
   394                           ;main.c: 111: (*PORT_Array[(cache)] = ((*PORT_Array[(cache)]) & (~(1 << (cache)))) | ((1
                                 &1) << (cache)));
   395  076B  3001               	movlw	(01h)
   396  076C  00F4               	movwf	(??_main+0)+0
   397  076D  0A78               	incf	(main@cache),w
   398  076E  2F71               	goto	u2394
   399  076F                     u2395:
   400  076F  1003               	clrc
   401  0770  0DF4               	rlf	(??_main+0)+0,f
   402  0771                     u2394:
   403  0771  3EFF               	addlw	-1
   404  0772  1D03               	skipz
   405  0773  2F6F               	goto	u2395
   406  0774  0878               	movf	(main@cache),w
   407  0775  3E28               	addlw	_PORT_Array&0ffh
   408  0776  0084               	movwf	fsr0
   409  0777  1383               	bcf	status, 7	;select IRP bank0
   410  0778  0800               	movf	indf,w
   411  0779  0084               	movwf	fsr0
   412  077A  3001               	movlw	(01h)
   413  077B  00F5               	movwf	(??_main+1)+0
   414  077C  0A78               	incf	(main@cache),w
   415  077D  2F80               	goto	u2404
   416  077E                     u2405:
   417  077E  1003               	clrc
   418  077F  0DF5               	rlf	(??_main+1)+0,f
   419  0780                     u2404:
   420  0780  3EFF               	addlw	-1
   421  0781  1D03               	skipz
   422  0782  2F7E               	goto	u2405
   423  0783  0875               	movf	0+(??_main+1)+0,w
   424  0784  3AFF               	xorlw	0ffh
   425  0785  0500               	andwf	indf,w
   426  0786  0474               	iorwf	0+(??_main+0)+0,w
   427  0787  00F6               	movwf	(??_main+2)+0
   428  0788  0878               	movf	(main@cache),w
   429  0789  3E28               	addlw	_PORT_Array&0ffh
   430  078A  0084               	movwf	fsr0
   431  078B  0800               	movf	indf,w
   432  078C  0084               	movwf	fsr0
   433  078D  0876               	movf	(??_main+2)+0,w
   434  078E  0080               	movwf	indf
   435                           	line	112
   436                           	
   437  078F                     l2144:	
   438                           ;main.c: 112: RB4 = 1;
   439  078F  1283               	bcf	status, 5	;RP0=0, select bank0
   440  0790  1303               	bcf	status, 6	;RP1=0, select bank0
   441  0791  1606               	bsf	(52/8),(52)&7
   442  0792  2F94               	goto	l395
   443                           	line	114
   444                           ;main.c: 114: while(1)
   445                           	
   446  0793                     l394:	
   447                           	line	116
   448                           ;main.c: 115: {
   449                           ;main.c: 116: while(RB3==1);
   450  0793  2F94               	goto	l395
   451                           	
   452  0794                     l396:	
   453                           	
   454  0794                     l395:	
   455  0794  1986               	btfsc	(51/8),(51)&7
   456  0795  2F97               	goto	u2411
   457  0796  2F98               	goto	u2410
   458  0797                     u2411:
   459  0797  2F94               	goto	l395
   460  0798                     u2410:
   461  0798  2F99               	goto	l2146
   462                           	
   463  0799                     l397:	
   464                           	line	118
   465                           	
   466  0799                     l2146:	
   467                           ;main.c: 118: unsigned char tmp = ReadInput();
   468  0799  26DF               	fcall	_ReadInput
   469  079A  00F4               	movwf	(??_main+0)+0
   470  079B  0874               	movf	(??_main+0)+0,w
   471  079C  00F7               	movwf	(main@tmp)
   472                           	line	119
   473                           	
   474  079D                     l2148:	
   475                           ;main.c: 119: if(cache != tmp)
   476  079D  0878               	movf	(main@cache),w
   477  079E  0677               	xorwf	(main@tmp),w
   478  079F  1903               	skipnz
   479  07A0  2FA2               	goto	u2421
   480  07A1  2FA3               	goto	u2420
   481  07A2                     u2421:
   482  07A2  2FF9               	goto	l398
   483  07A3                     u2420:
   484                           	line	121
   485                           	
   486  07A3                     l2150:	
   487                           ;main.c: 120: {
   488                           ;main.c: 121: RB4 = 0;
   489  07A3  1283               	bcf	status, 5	;RP0=0, select bank0
   490  07A4  1303               	bcf	status, 6	;RP1=0, select bank0
   491  07A5  1206               	bcf	(52/8),(52)&7
   492                           	line	123
   493                           	
   494  07A6                     l2152:	
   495                           ;main.c: 123: (*PORT_Array[(cache)] = ((*PORT_Array[(cache)]) & (~(1 << (cache)))) | ((0
                                 &1) << (cache)));
   496  07A6  3000               	movlw	(0)
   497  07A7  00F4               	movwf	(??_main+0)+0
   498  07A8  0A78               	incf	(main@cache),w
   499  07A9  2FAC               	goto	u2434
   500  07AA                     u2435:
   501  07AA  1003               	clrc
   502  07AB  0DF4               	rlf	(??_main+0)+0,f
   503  07AC                     u2434:
   504  07AC  3EFF               	addlw	-1
   505  07AD  1D03               	skipz
   506  07AE  2FAA               	goto	u2435
   507  07AF  0878               	movf	(main@cache),w
   508  07B0  3E28               	addlw	_PORT_Array&0ffh
   509  07B1  0084               	movwf	fsr0
   510  07B2  1383               	bcf	status, 7	;select IRP bank0
   511  07B3  0800               	movf	indf,w
   512  07B4  0084               	movwf	fsr0
   513  07B5  3001               	movlw	(01h)
   514  07B6  00F5               	movwf	(??_main+1)+0
   515  07B7  0A78               	incf	(main@cache),w
   516  07B8  2FBB               	goto	u2444
   517  07B9                     u2445:
   518  07B9  1003               	clrc
   519  07BA  0DF5               	rlf	(??_main+1)+0,f
   520  07BB                     u2444:
   521  07BB  3EFF               	addlw	-1
   522  07BC  1D03               	skipz
   523  07BD  2FB9               	goto	u2445
   524  07BE  0875               	movf	0+(??_main+1)+0,w
   525  07BF  3AFF               	xorlw	0ffh
   526  07C0  0500               	andwf	indf,w
   527  07C1  0474               	iorwf	0+(??_main+0)+0,w
   528  07C2  00F6               	movwf	(??_main+2)+0
   529  07C3  0878               	movf	(main@cache),w
   530  07C4  3E28               	addlw	_PORT_Array&0ffh
   531  07C5  0084               	movwf	fsr0
   532  07C6  0800               	movf	indf,w
   533  07C7  0084               	movwf	fsr0
   534  07C8  0876               	movf	(??_main+2)+0,w
   535  07C9  0080               	movwf	indf
   536                           	line	124
   537                           	
   538  07CA                     l2154:	
   539                           ;main.c: 124: if(tmp < 8)
   540  07CA  3008               	movlw	(08h)
   541  07CB  0277               	subwf	(main@tmp),w
   542  07CC  1803               	skipnc
   543  07CD  2FCF               	goto	u2451
   544  07CE  2FD0               	goto	u2450
   545  07CF                     u2451:
   546  07CF  2F94               	goto	l395
   547  07D0                     u2450:
   548                           	line	126
   549                           	
   550  07D0                     l2156:	
   551                           ;main.c: 125: {
   552                           ;main.c: 126: (*PORT_Array[(tmp)] = ((*PORT_Array[(tmp)]) & (~(1 << (tmp)))) | ((1&1) <<
                                  (tmp)));
   553  07D0  3001               	movlw	(01h)
   554  07D1  00F4               	movwf	(??_main+0)+0
   555  07D2  0A77               	incf	(main@tmp),w
   556  07D3  2FD6               	goto	u2464
   557  07D4                     u2465:
   558  07D4  1003               	clrc
   559  07D5  0DF4               	rlf	(??_main+0)+0,f
   560  07D6                     u2464:
   561  07D6  3EFF               	addlw	-1
   562  07D7  1D03               	skipz
   563  07D8  2FD4               	goto	u2465
   564  07D9  0877               	movf	(main@tmp),w
   565  07DA  3E28               	addlw	_PORT_Array&0ffh
   566  07DB  0084               	movwf	fsr0
   567  07DC  0800               	movf	indf,w
   568  07DD  0084               	movwf	fsr0
   569  07DE  3001               	movlw	(01h)
   570  07DF  00F5               	movwf	(??_main+1)+0
   571  07E0  0A77               	incf	(main@tmp),w
   572  07E1  2FE4               	goto	u2474
   573  07E2                     u2475:
   574  07E2  1003               	clrc
   575  07E3  0DF5               	rlf	(??_main+1)+0,f
   576  07E4                     u2474:
   577  07E4  3EFF               	addlw	-1
   578  07E5  1D03               	skipz
   579  07E6  2FE2               	goto	u2475
   580  07E7  0875               	movf	0+(??_main+1)+0,w
   581  07E8  3AFF               	xorlw	0ffh
   582  07E9  0500               	andwf	indf,w
   583  07EA  0474               	iorwf	0+(??_main+0)+0,w
   584  07EB  00F6               	movwf	(??_main+2)+0
   585  07EC  0877               	movf	(main@tmp),w
   586  07ED  3E28               	addlw	_PORT_Array&0ffh
   587  07EE  0084               	movwf	fsr0
   588  07EF  0800               	movf	indf,w
   589  07F0  0084               	movwf	fsr0
   590  07F1  0876               	movf	(??_main+2)+0,w
   591  07F2  0080               	movwf	indf
   592                           	line	128
   593                           	
   594  07F3                     l2158:	
   595                           ;main.c: 128: cache = tmp;
   596  07F3  0877               	movf	(main@tmp),w
   597  07F4  00F4               	movwf	(??_main+0)+0
   598  07F5  0874               	movf	(??_main+0)+0,w
   599  07F6  00F8               	movwf	(main@cache)
   600  07F7  2F94               	goto	l395
   601                           	line	129
   602                           	
   603  07F8                     l399:	
   604                           	line	130
   605                           ;main.c: 129: }
   606                           ;main.c: 130: }
   607  07F8  2F94               	goto	l395
   608                           	line	131
   609                           	
   610  07F9                     l398:	
   611                           	line	133
   612                           ;main.c: 131: else
   613                           ;main.c: 132: {
   614                           ;main.c: 133: RB4 = 1;
   615  07F9  1283               	bcf	status, 5	;RP0=0, select bank0
   616  07FA  1303               	bcf	status, 6	;RP1=0, select bank0
   617  07FB  1606               	bsf	(52/8),(52)&7
   618  07FC  2F94               	goto	l395
   619                           	line	134
   620                           	
   621  07FD                     l400:	
   622  07FD  2F94               	goto	l395
   623                           	line	135
   624                           	
   625  07FE                     l401:	
   626                           	line	114
   627  07FE  2F94               	goto	l395
   628                           	
   629  07FF                     l402:	
   630                           	line	136
   631                           	
   632  07FF                     l403:	
   633                           	global	start
   634  07FF  2800               	ljmp	start
   635                           	opt stack 0
   636                           GLOBAL	__end_of_main
   637  0800                     	__end_of_main:
   638 ;; =============== function _main ends ============
   639                           
   640                           	signat	_main,88
   641                           	global	_Init
   642                           psect	text149,local,class=CODE,delta=2
   643                           global __ptext149
   644  0700                     __ptext149:
   645                           
   646 ;; *************** function _Init *****************
   647 ;; Defined at:
   648 ;;		line 73 in file "C:\Users\root\Documents\TrainUtilizingSystem\DeviceSoftware\TrainSensorModule\main.c"
   649 ;; Parameters:    Size  Location     Type
   650 ;;		None
   651 ;; Auto vars:     Size  Location     Type
   652 ;;  i               1    0        unsigned char 
   653 ;; Return value:  Size  Location     Type
   654 ;;		None               void
   655 ;; Registers used:
   656 ;;		wreg, fsr0l, fsr0h, status,2, status,0, pclath, cstack
   657 ;; Tracked objects:
   658 ;;		On entry : 0/0
   659 ;;		On exit  : 0/0
   660 ;;		Unchanged: 0/0
   661 ;; Data sizes:     COMMON   BANK0   BANK1   BANK2
   662 ;;      Params:         0       0       0       0
   663 ;;      Locals:         0       0       0       0
   664 ;;      Temps:          0       0       0       0
   665 ;;      Totals:         0       0       0       0
   666 ;;Total ram usage:        0 bytes
   667 ;; Hardware stack levels used:    1
   668 ;; Hardware stack levels required when called:    1
   669 ;; This function calls:
   670 ;;		_PortClear
   671 ;; This function is called by:
   672 ;;		_main
   673 ;; This function uses a non-reentrant model
   674 ;;
   675                           psect	text149
   676                           	file	"C:\Users\root\Documents\TrainUtilizingSystem\DeviceSoftware\TrainSensorModule\mai
                                 n.c"
   677                           	line	73
   678                           	global	__size_of_Init
   679  0016                     	__size_of_Init	equ	__end_of_Init-_Init
   680                           	
   681  0700                     _Init:	
   682                           	opt	stack 6
   683                           ; Regs used in _Init: [wreg-fsr0h+status,2+status,0+pclath+cstack]
   684                           	line	76
   685                           	
   686  0700                     l2112:	
   687                           ;main.c: 74: unsigned char i;
   688                           ;main.c: 76: PORTA = 0x00;
   689  0700  1283               	bcf	status, 5	;RP0=0, select bank0
   690  0701  1303               	bcf	status, 6	;RP1=0, select bank0
   691  0702  0185               	clrf	(5)	;volatile
   692                           	line	77
   693                           ;main.c: 77: PORTB = 0x00;
   694  0703  0186               	clrf	(6)	;volatile
   695                           	line	79
   696                           	
   697  0704                     l2114:	
   698                           ;main.c: 79: CMCON = 0b00000111;
   699  0704  3007               	movlw	(07h)
   700  0705  009F               	movwf	(31)	;volatile
   701                           	line	80
   702                           	
   703  0706                     l2116:	
   704                           ;main.c: 80: VRCON = 0b00000000;
   705  0706  1683               	bsf	status, 5	;RP0=1, select bank1
   706  0707  1303               	bcf	status, 6	;RP1=0, select bank1
   707  0708  019F               	clrf	(159)^080h	;volatile
   708                           	line	81
   709                           	
   710  0709                     l2118:	
   711                           ;main.c: 81: nRBPU = 1;
   712  0709  1781               	bsf	(1039/8)^080h,(1039)&7
   713                           	line	83
   714                           	
   715  070A                     l2120:	
   716                           ;main.c: 83: TRISA = 0x00;
   717  070A  0185               	clrf	(133)^080h	;volatile
   718                           	line	84
   719                           	
   720  070B                     l2122:	
   721                           ;main.c: 84: TRISB = 0x00;
   722  070B  0186               	clrf	(134)^080h	;volatile
   723                           	line	86
   724                           	
   725  070C                     l2124:	
   726                           ;main.c: 86: TRISB0 = 1;
   727  070C  1406               	bsf	(1072/8)^080h,(1072)&7
   728                           	line	87
   729                           	
   730  070D                     l2126:	
   731                           ;main.c: 87: TRISB1 = 1;
   732  070D  1486               	bsf	(1073/8)^080h,(1073)&7
   733                           	line	88
   734                           	
   735  070E                     l2128:	
   736                           ;main.c: 88: TRISB2 = 1;
   737  070E  1506               	bsf	(1074/8)^080h,(1074)&7
   738                           	line	89
   739                           	
   740  070F                     l2130:	
   741                           ;main.c: 89: TRISB3 = 1;
   742  070F  1586               	bsf	(1075/8)^080h,(1075)&7
   743                           	line	91
   744                           	
   745  0710                     l2132:	
   746                           ;main.c: 91: TRISB4 = 0;
   747  0710  1206               	bcf	(1076/8)^080h,(1076)&7
   748                           	line	93
   749                           	
   750  0711                     l2134:	
   751                           ;main.c: 93: RB4 = 0;
   752  0711  1283               	bcf	status, 5	;RP0=0, select bank0
   753  0712  1303               	bcf	status, 6	;RP1=0, select bank0
   754  0713  1206               	bcf	(52/8),(52)&7
   755                           	line	94
   756                           	
   757  0714                     l2136:	
   758                           ;main.c: 94: PortClear();
   759  0714  272E               	fcall	_PortClear
   760                           	line	95
   761                           	
   762  0715                     l388:	
   763  0715  0008               	return
   764                           	opt stack 0
   765                           GLOBAL	__end_of_Init
   766  0716                     	__end_of_Init:
   767 ;; =============== function _Init ends ============
   768                           
   769                           	signat	_Init,88
   770                           	global	_ReadInput
   771                           psect	text150,local,class=CODE,delta=2
   772                           global __ptext150
   773  06DF                     __ptext150:
   774                           
   775 ;; *************** function _ReadInput *****************
   776 ;; Defined at:
   777 ;;		line 98 in file "C:\Users\root\Documents\TrainUtilizingSystem\DeviceSoftware\TrainSensorModule\main.c"
   778 ;; Parameters:    Size  Location     Type
   779 ;;		None
   780 ;; Auto vars:     Size  Location     Type
   781 ;;		None
   782 ;; Return value:  Size  Location     Type
   783 ;;                  1    wreg      unsigned char 
   784 ;; Registers used:
   785 ;;		wreg, status,2
   786 ;; Tracked objects:
   787 ;;		On entry : 0/0
   788 ;;		On exit  : 0/0
   789 ;;		Unchanged: 0/0
   790 ;; Data sizes:     COMMON   BANK0   BANK1   BANK2
   791 ;;      Params:         0       0       0       0
   792 ;;      Locals:         0       0       0       0
   793 ;;      Temps:          0       0       0       0
   794 ;;      Totals:         0       0       0       0
   795 ;;Total ram usage:        0 bytes
   796 ;; Hardware stack levels used:    1
   797 ;; This function calls:
   798 ;;		Nothing
   799 ;; This function is called by:
   800 ;;		_main
   801 ;; This function uses a non-reentrant model
   802 ;;
   803                           psect	text150
   804                           	file	"C:\Users\root\Documents\TrainUtilizingSystem\DeviceSoftware\TrainSensorModule\mai
                                 n.c"
   805                           	line	98
   806                           	global	__size_of_ReadInput
   807  0006                     	__size_of_ReadInput	equ	__end_of_ReadInput-_ReadInput
   808                           	
   809  06DF                     _ReadInput:	
   810                           	opt	stack 7
   811                           ; Regs used in _ReadInput: [wreg+status,2]
   812                           	line	103
   813                           	
   814  06DF                     l2108:	
   815                           ;main.c: 103: return PORTB & 0b00000111;
   816  06DF  1283               	bcf	status, 5	;RP0=0, select bank0
   817  06E0  1303               	bcf	status, 6	;RP1=0, select bank0
   818  06E1  0806               	movf	(6),w
   819  06E2  3907               	andlw	07h
   820  06E3  2EE4               	goto	l391
   821                           	
   822  06E4                     l2110:	
   823                           	line	104
   824                           	
   825  06E4                     l391:	
   826  06E4  0008               	return
   827                           	opt stack 0
   828                           GLOBAL	__end_of_ReadInput
   829  06E5                     	__end_of_ReadInput:
   830 ;; =============== function _ReadInput ends ============
   831                           
   832                           	signat	_ReadInput,89
   833                           	global	_PortClear
   834                           psect	text151,local,class=CODE,delta=2
   835                           global __ptext151
   836  072E                     __ptext151:
   837                           
   838 ;; *************** function _PortClear *****************
   839 ;; Defined at:
   840 ;;		line 64 in file "C:\Users\root\Documents\TrainUtilizingSystem\DeviceSoftware\TrainSensorModule\main.c"
   841 ;; Parameters:    Size  Location     Type
   842 ;;		None
   843 ;; Auto vars:     Size  Location     Type
   844 ;;  i               1    3[COMMON] unsigned char 
   845 ;; Return value:  Size  Location     Type
   846 ;;		None               void
   847 ;; Registers used:
   848 ;;		wreg, fsr0l, fsr0h, status,2, status,0
   849 ;; Tracked objects:
   850 ;;		On entry : 0/0
   851 ;;		On exit  : 0/0
   852 ;;		Unchanged: 0/0
   853 ;; Data sizes:     COMMON   BANK0   BANK1   BANK2
   854 ;;      Params:         0       0       0       0
   855 ;;      Locals:         1       0       0       0
   856 ;;      Temps:          3       0       0       0
   857 ;;      Totals:         4       0       0       0
   858 ;;Total ram usage:        4 bytes
   859 ;; Hardware stack levels used:    1
   860 ;; This function calls:
   861 ;;		Nothing
   862 ;; This function is called by:
   863 ;;		_Init
   864 ;; This function uses a non-reentrant model
   865 ;;
   866                           psect	text151
   867                           	file	"C:\Users\root\Documents\TrainUtilizingSystem\DeviceSoftware\TrainSensorModule\mai
                                 n.c"
   868                           	line	64
   869                           	global	__size_of_PortClear
   870  0039                     	__size_of_PortClear	equ	__end_of_PortClear-_PortClear
   871                           	
   872  072E                     _PortClear:	
   873                           	opt	stack 6
   874                           ; Regs used in _PortClear: [wreg-fsr0h+status,2+status,0]
   875                           	line	66
   876                           	
   877  072E                     l2096:	
   878                           ;main.c: 65: unsigned char i;
   879                           ;main.c: 66: for(i=0; i<8; ++i)
   880  072E  01F3               	clrf	(PortClear@i)
   881                           	
   882  072F                     l2098:	
   883  072F  3008               	movlw	(08h)
   884  0730  0273               	subwf	(PortClear@i),w
   885  0731  1C03               	skipc
   886  0732  2F34               	goto	u2351
   887  0733  2F35               	goto	u2350
   888  0734                     u2351:
   889  0734  2F37               	goto	l2102
   890  0735                     u2350:
   891  0735  2F66               	goto	l385
   892                           	
   893  0736                     l2100:	
   894  0736  2F66               	goto	l385
   895                           	line	67
   896                           	
   897  0737                     l383:	
   898                           	line	68
   899                           	
   900  0737                     l2102:	
   901                           ;main.c: 67: {
   902                           ;main.c: 68: (*TRIS_Array[(i)] = ((*TRIS_Array[(i)]) & (~(1 << (i)))) | ((0&1) << (i)));
   903  0737  3000               	movlw	(0)
   904  0738  00F0               	movwf	(??_PortClear+0)+0
   905  0739  0A73               	incf	(PortClear@i),w
   906  073A  2F3D               	goto	u2364
   907  073B                     u2365:
   908  073B  1003               	clrc
   909  073C  0DF0               	rlf	(??_PortClear+0)+0,f
   910  073D                     u2364:
   911  073D  3EFF               	addlw	-1
   912  073E  1D03               	skipz
   913  073F  2F3B               	goto	u2365
   914  0740  0873               	movf	(PortClear@i),w
   915  0741  3E30               	addlw	_TRIS_Array&0ffh
   916  0742  0084               	movwf	fsr0
   917  0743  1383               	bcf	status, 7	;select IRP bank0
   918  0744  0800               	movf	indf,w
   919  0745  0084               	movwf	fsr0
   920  0746  3001               	movlw	(01h)
   921  0747  00F1               	movwf	(??_PortClear+1)+0
   922  0748  0A73               	incf	(PortClear@i),w
   923  0749  2F4C               	goto	u2374
   924  074A                     u2375:
   925  074A  1003               	clrc
   926  074B  0DF1               	rlf	(??_PortClear+1)+0,f
   927  074C                     u2374:
   928  074C  3EFF               	addlw	-1
   929  074D  1D03               	skipz
   930  074E  2F4A               	goto	u2375
   931  074F  0871               	movf	0+(??_PortClear+1)+0,w
   932  0750  3AFF               	xorlw	0ffh
   933  0751  0500               	andwf	indf,w
   934  0752  0470               	iorwf	0+(??_PortClear+0)+0,w
   935  0753  00F2               	movwf	(??_PortClear+2)+0
   936  0754  0873               	movf	(PortClear@i),w
   937  0755  3E30               	addlw	_TRIS_Array&0ffh
   938  0756  0084               	movwf	fsr0
   939  0757  0800               	movf	indf,w
   940  0758  0084               	movwf	fsr0
   941  0759  0872               	movf	(??_PortClear+2)+0,w
   942  075A  0080               	movwf	indf
   943                           	line	66
   944                           	
   945  075B                     l2104:	
   946  075B  3001               	movlw	(01h)
   947  075C  00F0               	movwf	(??_PortClear+0)+0
   948  075D  0870               	movf	(??_PortClear+0)+0,w
   949  075E  07F3               	addwf	(PortClear@i),f
   950                           	
   951  075F                     l2106:	
   952  075F  3008               	movlw	(08h)
   953  0760  0273               	subwf	(PortClear@i),w
   954  0761  1C03               	skipc
   955  0762  2F64               	goto	u2381
   956  0763  2F65               	goto	u2380
   957  0764                     u2381:
   958  0764  2F37               	goto	l2102
   959  0765                     u2380:
   960  0765  2F66               	goto	l385
   961                           	
   962  0766                     l384:	
   963                           	line	70
   964                           	
   965  0766                     l385:	
   966  0766  0008               	return
   967                           	opt stack 0
   968                           GLOBAL	__end_of_PortClear
   969  0767                     	__end_of_PortClear:
   970 ;; =============== function _PortClear ends ============
   971                           
   972                           	signat	_PortClear,88
   973                           psect	text152,local,class=CODE,delta=2
   974                           global __ptext152
   975  0000                     __ptext152:
   976                           	global	btemp
   977  007E                     	btemp set 07Eh
   978                           
   979                           	DABS	1,126,2	;btemp
   980                           	global	wtemp0
   981  007E                     	wtemp0 set btemp


HI-TECH Software PICC Macro Assembler V9.82 build 9453 
Symbol Table                                                                                   Wed Sep 28 03:09:06 2011

          _TRIS_Array 0030                     pc 0002                    _RD 04E0                    _WR 04E1  
                  fsr 0004                   l400 07FD                   l401 07FE                   l402 07FF  
                 l403 07FF                   l383 0737                   l391 06E4                   l384 0766  
                 l385 0766                   l394 0793                   l395 0794                   l388 0715  
                 l396 0794                   l397 0799                   l398 07F9                   l399 07F8  
                 _GIE 005F                   _RB3 0033                   _RB4 0034                   fsr0 0004  
                 indf 0000                  l2100 0736                  l2102 0737                  l2110 06E4  
                l2104 075B                  l2120 070A                  l2112 0700                  l2106 075F  
                l2130 070F                  l2122 070B                  l2114 0704                  l2108 06DF  
                l2132 0710                  l2124 070C                  l2116 0706                  l2140 076A  
                l2134 0711                  l2126 070D                  l2118 0709                  l2150 07A3  
                l2142 076B                  l2136 0714                  l2128 070E                  l2152 07A6  
                l2144 078F                  l2154 07CA                  l2146 0799                  l2138 0767  
                l2156 07D0                  l2148 079D                  l2158 07F3                  l2096 072E  
                l2098 072F                  u2410 0798                  u2411 0797                  u2420 07A3  
                u2404 0780                  u2421 07A2                  u2405 077E                  u2350 0735  
                u2351 0734                  u2450 07D0                  u2434 07AC                  u2451 07CF  
                u2435 07AA                  u2380 0765                  u2364 073D                  u2444 07BB  
                u2381 0764                  u2365 073B                  u2445 07B9                  u2374 074C  
                u2375 074A                  u2464 07D6                  u2465 07D4                  u2474 07E4  
                u2394 0771                  u2475 07E2                  u2395 076F                  _WREN 04E2  
                _Init 0700                  _main 0767                  btemp 007E                  start 0000  
               ?_Init 0070                 ?_main 0070                 _EEADR 009B                 _CARRY 0018  
               _CMCON 001F                 _PORTA 0005                 _PORTB 0006                 _TRISA 0085  
               _TRISB 0086                 _VRCON 009F                 _nRBPU 040F                 pclath 000A  
               status 0003                 wtemp0 007E          __end_of_Init 0716          __end_of_main 0800  
              ??_Init 0074                ??_main 0074                _EEDATA 009A                _EECON1 009C  
              _EECON2 009D                _TRISB0 0430                _TRISB1 0431                _TRISB2 0432  
              _TRISB3 0433                _TRISB4 0434    __size_of_ReadInput 0006            PortClear@i 0073  
  __size_of_PortClear 0039        __pcstackCOMMON 0070          __pidataBANK0 0716     __end_of_ReadInput 06E5  
   __end_of_PortClear 0767            __pmaintext 0767               main@tmp 0077  end_of_initialization 06EF  
             init_ram 06F5   start_initialization 06E5             _ReadInput 06DF             _PortClear 072E  
         __pdataBANK0 0020            ?_ReadInput 0070            ?_PortClear 0070             __ptext150 06DF  
           __ptext151 072E             __ptext152 0000             __ptext149 0700             main@cache 0078  
         ??_ReadInput 0070             init_fetch 06F1           ??_PortClear 0070            _BITS_Array 0020  
       __size_of_Init 0016         __size_of_main 0099            _PORT_Array 0028  
